target datalayout = "e-m:e-p270:32:32-p271:32:32-p272:64:64-i64:64-i128:128-f80:128-n8:16:32:64-S128"
target triple = "x86_64-pc-linux-gnu"

%struct._typeobject = type { %struct.PyVarObject, ptr, i64, i64, ptr, i64, ptr, ptr, ptr, ptr, ptr, ptr, ptr, ptr, ptr, ptr, ptr, ptr, ptr, i64, ptr, ptr, ptr, ptr, i64, ptr, ptr, ptr, ptr, ptr, ptr, ptr, ptr, ptr, i64, ptr, ptr, ptr, ptr, ptr, ptr, ptr, ptr, ptr, ptr, ptr, i32, ptr, ptr, i8, i16 }
%struct.PyVarObject = type { %struct._object, i64 }
%struct._object = type { %union.anon, ptr }
%union.anon = type { i64 }
%struct._longobject = type { %struct._object, %struct._PyLongValue }
%struct._PyLongValue = type { i64, [1 x i32] }

@PyLong_Type = external global %struct._typeobject, align 8
@PyFloat_Type = external global %struct._typeobject, align 8

; Function Attrs: inlinehint nounwind uwtable
define internal ptr @_Py_TYPE(ptr noundef %0) #2 {
  %2 = alloca ptr, align 8
  store ptr %0, ptr %2, align 8, !tbaa !18
  %3 = load ptr, ptr %2, align 8, !tbaa !18
  %4 = getelementptr inbounds nuw %struct._object, ptr %3, i32 0, i32 1
  %5 = load ptr, ptr %4, align 8, !tbaa !34
  ret ptr %5
}

; Function Attrs: inlinehint nounwind uwtable
define internal i32 @_PyLong_IsCompact(ptr noundef %0) #2 {
  %2 = alloca ptr, align 8
  store ptr %0, ptr %2, align 8, !tbaa !152
  %3 = load ptr, ptr %2, align 8, !tbaa !152
  %4 = getelementptr inbounds nuw %struct._longobject, ptr %3, i32 0, i32 1
  %5 = getelementptr inbounds nuw %struct._PyLongValue, ptr %4, i32 0, i32 0
  %6 = load i64, ptr %5, align 8, !tbaa !154
  %7 = icmp ult i64 %6, 16
  %8 = zext i1 %7 to i32
  ret i32 %8
}

; Function Attrs: inlinehint nounwind uwtable
define internal i32 @Py_IS_TYPE(ptr noundef %0, ptr noundef %1) #2 {
  %3 = alloca ptr, align 8
  %4 = alloca ptr, align 8
  store ptr %0, ptr %3, align 8, !tbaa !18
  store ptr %1, ptr %4, align 8, !tbaa !20
  %5 = load ptr, ptr %3, align 8, !tbaa !18
  %6 = call ptr @_Py_TYPE(ptr noundef %5)
  %7 = load ptr, ptr %4, align 8, !tbaa !20
  %8 = icmp eq ptr %6, %7
  %9 = zext i1 %8 to i32
  ret i32 %9
}

; Function Attrs: inlinehint nounwind uwtable
define internal i32 @compactlong_float_guard(ptr noundef %0, ptr noundef %1) #2 {
  %3 = alloca ptr, align 8
  %4 = alloca ptr, align 8
  store ptr %0, ptr %3, align 8, !tbaa !18
  store ptr %1, ptr %4, align 8, !tbaa !18
  %5 = load ptr, ptr %3, align 8, !tbaa !18
  %6 = call i32 @Py_IS_TYPE(ptr noundef %5, ptr noundef @PyLong_Type)
  %7 = icmp ne i32 %6, 0
  br i1 %7, label %8, label %21

8:                                                ; preds = %2
  %9 = load ptr, ptr %3, align 8, !tbaa !18
  %10 = call i32 @_PyLong_IsCompact(ptr noundef %9)
  %11 = icmp ne i32 %10, 0
  br i1 %11, label %12, label %21

12:                                               ; preds = %8
  %13 = load ptr, ptr %4, align 8, !tbaa !18
  %14 = call i32 @Py_IS_TYPE(ptr noundef %13, ptr noundef @PyFloat_Type)
  %15 = icmp ne i32 %14, 0
  br i1 %15, label %16, label %21

16:                                               ; preds = %12
  %17 = load ptr, ptr %4, align 8, !tbaa !18
  %18 = call double @PyFloat_AsDouble(ptr noundef %17)
  %19 = call i1 @llvm.is.fpclass.f64(double %18, i32 3)
  %20 = xor i1 %19, true
  br label %21

21:                                               ; preds = %16, %12, %8, %2
  %22 = phi i1 [ false, %12 ], [ false, %8 ], [ false, %2 ], [ %20, %16 ]
  %23 = zext i1 %22 to i32
  ret i32 %23
}