; Function Attrs: inlinehint nounwind uwtable
define internal range(i32 0, 2) i32 @compactlong_float_guard(ptr noundef readonly captures(none) %0, ptr noundef %1) #7 {
  %3 = getelementptr i8, ptr %0, i64 8
  %.val6 = load ptr, ptr %3, align 8, !tbaa !9
  %.not = icmp eq ptr %.val6, @PyLong_Type
  br i1 %.not, label %4, label %13

4:                                                ; preds = %2
  %5 = getelementptr i8, ptr %0, i64 16
  %.val7 = load i64, ptr %5, align 8, !tbaa !153
  %6 = icmp ugt i64 %.val7, 15
  br i1 %6, label %13, label %7

7:                                                ; preds = %4
  %8 = getelementptr i8, ptr %1, i64 8
  %.val = load ptr, ptr %8, align 8, !tbaa !9
  %.not8 = icmp eq ptr %.val, @PyFloat_Type
  br i1 %.not8, label %9, label %13

9:                                                ; preds = %7
  %10 = tail call double @PyFloat_AsDouble(ptr noundef nonnull %1) #9
  %11 = fcmp ord double %10, 0.000000e+00
  %12 = zext i1 %11 to i32
  br label %13

13:                                               ; preds = %9, %7, %4, %2
  %14 = phi i32 [ 0, %7 ], [ 0, %4 ], [ 0, %2 ], [ %12, %9 ]
  ret i32 %14
}